target datalayout = "e-m:e-p270:32:32-p271:32:32-p272:64:64-i64:64-i128:128-f80:128-n8:16:32:64-S128"
target triple = "x86_64-pc-linux-gnu"

%struct.event_signal_map = type { ptr, i32 }
%struct.event_base = type { ptr, ptr, %struct.event_changelist, ptr, %struct.evsig_info, i32, i32, i32, i32, i32, i32, i32, i32, i32, i32, i32, i32, ptr, i32, %struct.evcallback_list, ptr, i32, i32, %struct.event_signal_map, %struct.event_signal_map, %struct.min_heap, %struct.timeval, %struct.evutil_monotonic_timer, %struct.timeval, i64, i64, ptr, ptr, i32, ptr, i32, %struct.timeval, i32, i32, i32, [2 x i32], %struct.event, ptr, %struct.evutil_weakrand_state, %struct.once_event_list, [2 x %struct.evwatch_list] }
%struct.event_changelist = type { ptr, i32, i32 }
%struct.evsig_info = type { %struct.event, [2 x i32], i32, i32, [65 x ptr], ptr, i32 }
%struct.evcallback_list = type { ptr, ptr }
%struct.min_heap = type { ptr, i64, i64 }
%struct.evutil_monotonic_timer = type { i32, %struct.timeval, %struct.timeval }
%struct.timeval = type { i64, i64 }
%struct.event = type { %struct.event_callback, %union.anon.0, i32, i16, i16, ptr, %union.anon.2, %struct.timeval }
%struct.event_callback = type { %struct.anon, i16, i8, i8, %union.anon, ptr }
%struct.anon = type { ptr, ptr }
%union.anon = type { ptr }
%union.anon.0 = type { %struct.anon.1 }
%struct.anon.1 = type { ptr, ptr }
%union.anon.2 = type { %struct.anon.3 }
%struct.anon.3 = type { %struct.anon.4, %struct.timeval }
%struct.anon.4 = type { ptr, ptr }
%struct.evutil_weakrand_state = type { i32 }
%struct.once_event_list = type { ptr }
%struct.evwatch_list = type { ptr, ptr }
%struct.eventop = type { ptr, ptr, ptr, ptr, ptr, ptr, i32, i32, i64 }
%struct.evmap_io = type { %struct.event_dlist, i16, i16, i16 }
%struct.event_dlist = type { ptr }

; Function Attrs: nounwind uwtable
define hidden i32 @evmap_io_del_(ptr noundef %0, i32 noundef %1, ptr noundef %2) #0 {
  %4 = alloca i32, align 4
  %5 = alloca ptr, align 8
  %6 = alloca i32, align 4
  %7 = alloca ptr, align 8
  %8 = alloca ptr, align 8
  %9 = alloca ptr, align 8
  %10 = alloca ptr, align 8
  %11 = alloca i32, align 4
  %12 = alloca i32, align 4
  %13 = alloca i32, align 4
  %14 = alloca i32, align 4
  %15 = alloca i16, align 2
  %16 = alloca i16, align 2
  %17 = alloca i32, align 4
  %18 = alloca ptr, align 8
  store ptr %0, ptr %5, align 8
  store i32 %1, ptr %6, align 4
  store ptr %2, ptr %7, align 8
  call void @llvm.lifetime.start.p0(i64 8, ptr %8) #6
  %19 = load ptr, ptr %5, align 8
  %20 = getelementptr inbounds nuw %struct.event_base, ptr %19, i32 0, i32 0
  %21 = load ptr, ptr %20, align 8
  store ptr %21, ptr %8, align 8
  call void @llvm.lifetime.start.p0(i64 8, ptr %9) #6
  %22 = load ptr, ptr %5, align 8
  %23 = getelementptr inbounds nuw %struct.event_base, ptr %22, i32 0, i32 23
  store ptr %23, ptr %9, align 8
  call void @llvm.lifetime.start.p0(i64 8, ptr %10) #6
  call void @llvm.lifetime.start.p0(i64 4, ptr %11) #6
  call void @llvm.lifetime.start.p0(i64 4, ptr %12) #6
  call void @llvm.lifetime.start.p0(i64 4, ptr %13) #6
  call void @llvm.lifetime.start.p0(i64 4, ptr %14) #6
  store i32 0, ptr %14, align 4
  call void @llvm.lifetime.start.p0(i64 2, ptr %15) #6
  store i16 0, ptr %15, align 2
  call void @llvm.lifetime.start.p0(i64 2, ptr %16) #6
  store i16 0, ptr %16, align 2
  %24 = load i32, ptr %6, align 4
  %25 = icmp slt i32 %24, 0
  br i1 %25, label %26, label %27

26:                                               ; preds = %3
  store i32 0, ptr %4, align 4
  store i32 1, ptr %17, align 4
  br label %217

27:                                               ; preds = %3
  br label %28

28:                                               ; preds = %27
  br label %29

29:                                               ; preds = %28
  br label %30

30:                                               ; preds = %29
  %31 = load i32, ptr %6, align 4
  %32 = load ptr, ptr %9, align 8
  %33 = getelementptr inbounds nuw %struct.event_signal_map, ptr %32, i32 0, i32 1
  %34 = load i32, ptr %33, align 8
  %35 = icmp sge i32 %31, %34
  br i1 %35, label %36, label %37

36:                                               ; preds = %30
  store i32 -1, ptr %4, align 4
  store i32 1, ptr %17, align 4
  br label %217

37:                                               ; preds = %30
  %38 = load ptr, ptr %9, align 8
  %39 = getelementptr inbounds nuw %struct.event_signal_map, ptr %38, i32 0, i32 0
  %40 = load ptr, ptr %39, align 8
  %41 = load i32, ptr %6, align 4
  %42 = sext i32 %41 to i64
  %43 = getelementptr inbounds ptr, ptr %40, i64 %42
  %44 = load ptr, ptr %43, align 8
  store ptr %44, ptr %10, align 8
  %45 = load ptr, ptr %10, align 8
  %46 = getelementptr inbounds nuw %struct.evmap_io, ptr %45, i32 0, i32 1
  %47 = load i16, ptr %46, align 8
  %48 = zext i16 %47 to i32
  store i32 %48, ptr %11, align 4
  %49 = load ptr, ptr %10, align 8
  %50 = getelementptr inbounds nuw %struct.evmap_io, ptr %49, i32 0, i32 2
  %51 = load i16, ptr %50, align 2
  %52 = zext i16 %51 to i32
  store i32 %52, ptr %12, align 4
  %53 = load ptr, ptr %10, align 8
  %54 = getelementptr inbounds nuw %struct.evmap_io, ptr %53, i32 0, i32 3
  %55 = load i16, ptr %54, align 4
  %56 = zext i16 %55 to i32
  store i32 %56, ptr %13, align 4
  %57 = load i32, ptr %11, align 4
  %58 = icmp ne i32 %57, 0
  br i1 %58, label %59, label %64

59:                                               ; preds = %37
  %60 = load i16, ptr %16, align 2
  %61 = sext i16 %60 to i32
  %62 = or i32 %61, 2
  %63 = trunc i32 %62 to i16
  store i16 %63, ptr %16, align 2
  br label %64

64:                                               ; preds = %59, %37
  %65 = load i32, ptr %12, align 4
  %66 = icmp ne i32 %65, 0
  br i1 %66, label %67, label %72

67:                                               ; preds = %64
  %68 = load i16, ptr %16, align 2
  %69 = sext i16 %68 to i32
  %70 = or i32 %69, 4
  %71 = trunc i32 %70 to i16
  store i16 %71, ptr %16, align 2
  br label %72

72:                                               ; preds = %67, %64
  %73 = load i32, ptr %13, align 4
  %74 = icmp ne i32 %73, 0
  br i1 %74, label %75, label %80

75:                                               ; preds = %72
  %76 = load i16, ptr %16, align 2
  %77 = sext i16 %76 to i32
  %78 = or i32 %77, 128
  %79 = trunc i32 %78 to i16
  store i16 %79, ptr %16, align 2
  br label %80

80:                                               ; preds = %75, %72
  %81 = load ptr, ptr %7, align 8
  %82 = getelementptr inbounds nuw %struct.event, ptr %81, i32 0, i32 3
  %83 = load i16, ptr %82, align 4
  %84 = sext i16 %83 to i32
  %85 = and i32 %84, 2
  %86 = icmp ne i32 %85, 0
  br i1 %86, label %87, label %100

87:                                               ; preds = %80
  %88 = load i32, ptr %11, align 4
  %89 = add nsw i32 %88, -1
  store i32 %89, ptr %11, align 4
  %90 = icmp eq i32 %89, 0
  br i1 %90, label %91, label %96

91:                                               ; preds = %87
  %92 = load i16, ptr %15, align 2
  %93 = sext i16 %92 to i32
  %94 = or i32 %93, 2
  %95 = trunc i32 %94 to i16
  store i16 %95, ptr %15, align 2
  br label %96

96:                                               ; preds = %91, %87
  br label %97

97:                                               ; preds = %96
  br label %98

98:                                               ; preds = %97
  br label %99

99:                                               ; preds = %98
  br label %100

100:                                              ; preds = %99, %80
  %101 = load ptr, ptr %7, align 8
  %102 = getelementptr inbounds nuw %struct.event, ptr %101, i32 0, i32 3
  %103 = load i16, ptr %102, align 4
  %104 = sext i16 %103 to i32
  %105 = and i32 %104, 4
  %106 = icmp ne i32 %105, 0
  br i1 %106, label %107, label %120

107:                                              ; preds = %100
  %108 = load i32, ptr %12, align 4
  %109 = add nsw i32 %108, -1
  store i32 %109, ptr %12, align 4
  %110 = icmp eq i32 %109, 0
  br i1 %110, label %111, label %116

111:                                              ; preds = %107
  %112 = load i16, ptr %15, align 2
  %113 = sext i16 %112 to i32
  %114 = or i32 %113, 4
  %115 = trunc i32 %114 to i16
  store i16 %115, ptr %15, align 2
  br label %116

116:                                              ; preds = %111, %107
  br label %117

117:                                              ; preds = %116
  br label %118

118:                                              ; preds = %117
  br label %119

119:                                              ; preds = %118
  br label %120

120:                                              ; preds = %119, %100
  %121 = load ptr, ptr %7, align 8
  %122 = getelementptr inbounds nuw %struct.event, ptr %121, i32 0, i32 3
  %123 = load i16, ptr %122, align 4
  %124 = sext i16 %123 to i32
  %125 = and i32 %124, 128
  %126 = icmp ne i32 %125, 0
  br i1 %126, label %127, label %140

127:                                              ; preds = %120
  %128 = load i32, ptr %13, align 4
  %129 = add nsw i32 %128, -1
  store i32 %129, ptr %13, align 4
  %130 = icmp eq i32 %129, 0
  br i1 %130, label %131, label %136

131:                                              ; preds = %127
  %132 = load i16, ptr %15, align 2
  %133 = sext i16 %132 to i32
  %134 = or i32 %133, 128
  %135 = trunc i32 %134 to i16
  store i16 %135, ptr %15, align 2
  br label %136

136:                                              ; preds = %131, %127
  br label %137

137:                                              ; preds = %136
  br label %138

138:                                              ; preds = %137
  br label %139

139:                                              ; preds = %138
  br label %140

140:                                              ; preds = %139, %120
  %141 = load i16, ptr %15, align 2
  %142 = icmp ne i16 %141, 0
  br i1 %142, label %143, label %169

143:                                              ; preds = %140
  call void @llvm.lifetime.start.p0(i64 8, ptr %18) #6
  %144 = load ptr, ptr %10, align 8
  %145 = getelementptr inbounds nuw i8, ptr %144, i64 16
  store ptr %145, ptr %18, align 8
  %146 = load ptr, ptr %8, align 8
  %147 = getelementptr inbounds nuw %struct.eventop, ptr %146, i32 0, i32 3
  %148 = load ptr, ptr %147, align 8
  %149 = load ptr, ptr %5, align 8
  %150 = load ptr, ptr %7, align 8
  %151 = getelementptr inbounds nuw %struct.event, ptr %150, i32 0, i32 2
  %152 = load i32, ptr %151, align 8
  %153 = load i16, ptr %16, align 2
  %154 = load ptr, ptr %7, align 8
  %155 = getelementptr inbounds nuw %struct.event, ptr %154, i32 0, i32 3
  %156 = load i16, ptr %155, align 4
  %157 = sext i16 %156 to i32
  %158 = and i32 %157, 32
  %159 = load i16, ptr %15, align 2
  %160 = sext i16 %159 to i32
  %161 = or i32 %158, %160
  %162 = trunc i32 %161 to i16
  %163 = load ptr, ptr %18, align 8
  %164 = call i32 %148(ptr noundef %149, i32 noundef %152, i16 noundef signext %153, i16 noundef signext %162, ptr noundef %163)
  %165 = icmp eq i32 %164, -1
  br i1 %165, label %166, label %167

166:                                              ; preds = %143
  store i32 -1, ptr %14, align 4
  br label %168

167:                                              ; preds = %143
  store i32 1, ptr %14, align 4
  br label %168

168:                                              ; preds = %167, %166
  call void @llvm.lifetime.end.p0(i64 8, ptr %18) #6
  br label %169

169:                                              ; preds = %168, %140
  %170 = load i32, ptr %11, align 4
  %171 = trunc i32 %170 to i16
  %172 = load ptr, ptr %10, align 8
  %173 = getelementptr inbounds nuw %struct.evmap_io, ptr %172, i32 0, i32 1
  store i16 %171, ptr %173, align 8
  %174 = load i32, ptr %12, align 4
  %175 = trunc i32 %174 to i16
  %176 = load ptr, ptr %10, align 8
  %177 = getelementptr inbounds nuw %struct.evmap_io, ptr %176, i32 0, i32 2
  store i16 %175, ptr %177, align 2
  %178 = load i32, ptr %13, align 4
  %179 = trunc i32 %178 to i16
  %180 = load ptr, ptr %10, align 8
  %181 = getelementptr inbounds nuw %struct.evmap_io, ptr %180, i32 0, i32 3
  store i16 %179, ptr %181, align 4
  br label %182

182:                                              ; preds = %169
  %183 = load ptr, ptr %7, align 8
  %184 = getelementptr inbounds nuw %struct.event, ptr %183, i32 0, i32 6
  %185 = getelementptr inbounds nuw %struct.anon.3, ptr %184, i32 0, i32 0
  %186 = getelementptr inbounds nuw %struct.anon.4, ptr %185, i32 0, i32 0
  %187 = load ptr, ptr %186, align 8
  %188 = icmp ne ptr %187, null
  br i1 %188, label %189, label %203

189:                                              ; preds = %182
  %190 = load ptr, ptr %7, align 8
  %191 = getelementptr inbounds nuw %struct.event, ptr %190, i32 0, i32 6
  %192 = getelementptr inbounds nuw %struct.anon.3, ptr %191, i32 0, i32 0
  %193 = getelementptr inbounds nuw %struct.anon.4, ptr %192, i32 0, i32 1
  %194 = load ptr, ptr %193, align 8
  %195 = load ptr, ptr %7, align 8
  %196 = getelementptr inbounds nuw %struct.event, ptr %195, i32 0, i32 6
  %197 = getelementptr inbounds nuw %struct.anon.3, ptr %196, i32 0, i32 0
  %198 = getelementptr inbounds nuw %struct.anon.4, ptr %197, i32 0, i32 0
  %199 = load ptr, ptr %198, align 8
  %200 = getelementptr inbounds nuw %struct.event, ptr %199, i32 0, i32 6
  %201 = getelementptr inbounds nuw %struct.anon.3, ptr %200, i32 0, i32 0
  %202 = getelementptr inbounds nuw %struct.anon.4, ptr %201, i32 0, i32 1
  store ptr %194, ptr %202, align 8
  br label %203

203:                                              ; preds = %189, %182
  %204 = load ptr, ptr %7, align 8
  %205 = getelementptr inbounds nuw %struct.event, ptr %204, i32 0, i32 6
  %206 = getelementptr inbounds nuw %struct.anon.3, ptr %205, i32 0, i32 0
  %207 = getelementptr inbounds nuw %struct.anon.4, ptr %206, i32 0, i32 0
  %208 = load ptr, ptr %207, align 8
  %209 = load ptr, ptr %7, align 8
  %210 = getelementptr inbounds nuw %struct.event, ptr %209, i32 0, i32 6
  %211 = getelementptr inbounds nuw %struct.anon.3, ptr %210, i32 0, i32 0
  %212 = getelementptr inbounds nuw %struct.anon.4, ptr %211, i32 0, i32 1
  %213 = load ptr, ptr %212, align 8
  store ptr %208, ptr %213, align 8
  br label %214

214:                                              ; preds = %203
  br label %215

215:                                              ; preds = %214
  %216 = load i32, ptr %14, align 4
  store i32 %216, ptr %4, align 4
  store i32 1, ptr %17, align 4
  br label %217

217:                                              ; preds = %215, %36, %26
  call void @llvm.lifetime.end.p0(i64 2, ptr %16) #6
  call void @llvm.lifetime.end.p0(i64 2, ptr %15) #6
  call void @llvm.lifetime.end.p0(i64 4, ptr %14) #6
  call void @llvm.lifetime.end.p0(i64 4, ptr %13) #6
  call void @llvm.lifetime.end.p0(i64 4, ptr %12) #6
  call void @llvm.lifetime.end.p0(i64 4, ptr %11) #6
  call void @llvm.lifetime.end.p0(i64 8, ptr %10) #6
  call void @llvm.lifetime.end.p0(i64 8, ptr %9) #6
  call void @llvm.lifetime.end.p0(i64 8, ptr %8) #6
  %218 = load i32, ptr %4, align 4
  ret i32 %218
}