; Function Attrs: nounwind uwtable
define hidden range(i32 -1, 2) i32 @evmap_io_del_(ptr noundef %0, i32 noundef %1, ptr noundef readonly captures(none) %2) local_unnamed_addr #1 {
  %4 = load ptr, ptr %0, align 8
  %5 = getelementptr inbounds nuw i8, ptr %0, i64 808
  %6 = icmp slt i32 %1, 0
  br i1 %6, label %61, label %7

7:                                                ; preds = %3
  %8 = getelementptr inbounds nuw i8, ptr %0, i64 816
  %9 = load i32, ptr %8, align 8
  %.not = icmp slt i32 %1, %9
  br i1 %.not, label %10, label %61

10:                                               ; preds = %7
  %11 = load ptr, ptr %5, align 8
  %12 = zext nneg i32 %1 to i64
  %13 = getelementptr inbounds nuw ptr, ptr %11, i64 %12
  %14 = load ptr, ptr %13, align 8
  %15 = getelementptr inbounds nuw i8, ptr %14, i64 8
  %16 = load i16, ptr %15, align 8
  %17 = zext i16 %16 to i32
  %18 = getelementptr inbounds nuw i8, ptr %14, i64 10
  %19 = load i16, ptr %18, align 2
  %20 = zext i16 %19 to i32
  %21 = getelementptr inbounds nuw i8, ptr %14, i64 12
  %22 = load i16, ptr %21, align 4
  %23 = zext i16 %22 to i32
  %.not63 = icmp eq i16 %16, 0
  %spec.select = select i1 %.not63, i16 0, i16 2
  %.not64 = icmp eq i16 %19, 0
  %24 = or disjoint i16 %spec.select, 4
  %.1 = select i1 %.not64, i16 %spec.select, i16 %24
  %.not65 = icmp eq i16 %22, 0
  %25 = or disjoint i16 %.1, 128
  %.2 = select i1 %.not65, i16 %.1, i16 %25
  %26 = getelementptr inbounds nuw i8, ptr %2, i64 60
  %27 = load i16, ptr %26, align 4
  %28 = and i16 %27, 2
  %.not66 = icmp eq i16 %28, 0
  %29 = add nsw i32 %17, -1
  %30 = icmp eq i32 %29, 0
  %spec.select72 = select i1 %30, i16 2, i16 0
  %.047 = select i1 %.not66, i16 0, i16 %spec.select72
  %31 = and i16 %27, 4
  %.not67 = icmp eq i16 %31, 0
  %32 = add nsw i32 %20, -1
  %33 = icmp eq i32 %32, 0
  %34 = or disjoint i16 %.047, 4
  %spec.select74 = select i1 %33, i16 %34, i16 %.047
  %.148 = select i1 %.not67, i16 %.047, i16 %spec.select74
  %35 = and i16 %27, 128
  %.not68 = icmp eq i16 %35, 0
  br i1 %.not68, label %40, label %36

36:                                               ; preds = %10
  %37 = add nsw i32 %23, -1
  %38 = icmp eq i32 %37, 0
  %39 = or disjoint i16 %.148, 128
  br i1 %38, label %.thread, label %40

40:                                               ; preds = %36, %10
  %.052 = phi i32 [ %23, %10 ], [ %37, %36 ]
  %.not69 = icmp eq i16 %.148, 0
  br i1 %.not69, label %50, label %.thread

.thread:                                          ; preds = %36, %40
  %.24982 = phi i16 [ %.148, %40 ], [ %39, %36 ]
  %.05280 = phi i32 [ %.052, %40 ], [ 0, %36 ]
  %41 = getelementptr inbounds nuw i8, ptr %14, i64 16
  %42 = getelementptr inbounds nuw i8, ptr %4, i64 24
  %43 = load ptr, ptr %42, align 8
  %44 = getelementptr inbounds nuw i8, ptr %2, i64 56
  %45 = load i32, ptr %44, align 8
  %46 = and i16 %27, 32
  %47 = or i16 %.24982, %46
  %48 = tail call i32 %43(ptr noundef nonnull %0, i32 noundef %45, i16 noundef signext %.2, i16 noundef signext %47, ptr noundef nonnull %41) #7
  %49 = icmp eq i32 %48, -1
  %. = select i1 %49, i32 -1, i32 1
  br label %50

50:                                               ; preds = %.thread, %40
  %.05281 = phi i32 [ %.05280, %.thread ], [ %.052, %40 ]
  %.050 = phi i32 [ %., %.thread ], [ 0, %40 ]
  %51 = trunc i32 %29 to i16
  %52 = select i1 %.not66, i16 %16, i16 %51
  store i16 %52, ptr %15, align 8
  %53 = trunc i32 %32 to i16
  %54 = select i1 %.not67, i16 %19, i16 %53
  store i16 %54, ptr %18, align 2
  %55 = trunc i32 %.05281 to i16
  store i16 %55, ptr %21, align 4
  %56 = getelementptr inbounds nuw i8, ptr %2, i64 72
  %57 = load ptr, ptr %56, align 8
  %.not70 = icmp eq ptr %57, null
  %.phi.trans.insert = getelementptr inbounds nuw i8, ptr %2, i64 80
  %.pre83 = load ptr, ptr %.phi.trans.insert, align 8
  br i1 %.not70, label %._crit_edge, label %58

58:                                               ; preds = %50
  %59 = getelementptr inbounds nuw i8, ptr %57, i64 80
  store ptr %.pre83, ptr %59, align 8
  %.pre = load ptr, ptr %56, align 8
  br label %._crit_edge

._crit_edge:                                      ; preds = %50, %58
  %60 = phi ptr [ %.pre, %58 ], [ null, %50 ]
  store ptr %60, ptr %.pre83, align 8
  br label %61

61:                                               ; preds = %7, %3, %._crit_edge
  %.0 = phi i32 [ %.050, %._crit_edge ], [ 0, %3 ], [ -1, %7 ]
  ret i32 %.0
}